; Function Attrs: mustprogress uwtable
define void @_ZN14RtpAudioStream20jitterDroppedSamplesEi(ptr dead_on_unwind noalias writable sret(%class.QList.4) align 8 %0, ptr nocapture noundef nonnull readonly align 8 dereferenceable(7680) %1, i32 noundef %2) local_unnamed_addr #0 align 2 personality ptr @__gxx_personality_v0 {
  %4 = alloca double, align 8
  tail call void @llvm.memset.p0.i64(ptr noundef nonnull align 8 dereferenceable(24) %0, i8 0, i64 24, i1 false)
  %5 = sitofp i32 %2 to double
  %6 = fmul double %5, 1.092200e+04
  %7 = getelementptr inbounds i8, ptr %1, i64 7592
  %8 = load i64, ptr %7, align 8
  %9 = icmp sgt i64 %8, 0
  br i1 %9, label %.lr.ph, label %._crit_edge

.lr.ph:                                           ; preds = %3
  %10 = getelementptr inbounds i8, ptr %0, i64 16
  br label %11

11:                                               ; preds = %.lr.ph, %13
  %.07 = phi i32 [ 0, %.lr.ph ], [ %14, %13 ]
  call void @llvm.lifetime.start.p0(i64 8, ptr nonnull %4)
  store double %6, ptr %4, align 8
  %12 = load i64, ptr %10, align 8
  invoke void @_ZN9QtPrivate12QPodArrayOpsIdE7emplaceIJRdEEEvxDpOT_(ptr noundef nonnull align 8 dereferenceable(24) %0, i64 noundef %12, ptr noundef nonnull align 8 dereferenceable(8) %4)
          to label %13 unwind label %18

13:                                               ; preds = %11
  call void @llvm.lifetime.end.p0(i64 8, ptr nonnull %4)
  %14 = add i32 %.07, 1
  %15 = sext i32 %14 to i64
  %16 = load i64, ptr %7, align 8
  %17 = icmp sgt i64 %16, %15
  br i1 %17, label %11, label %._crit_edge, !llvm.loop !40

18:                                               ; preds = %11
  %19 = landingpad { ptr, i32 }
          cleanup
  call void @_ZN5QListIdED2Ev(ptr noundef nonnull align 8 dereferenceable(24) %0) #25
  resume { ptr, i32 } %19

._crit_edge:                                      ; preds = %13, %3
  ret void
}